target datalayout = "e-m:e-p270:32:32-p271:32:32-p272:64:64-i64:64-i128:128-f80:128-n8:16:32:64-S128"
target triple = "x86_64-unknown-linux-gnu"

@je_malloc_message = dso_local global ptr null, align 8

; Function Attrs: nounwind uwtable
define hidden void @malloc_vcprintf(ptr noundef %write_cb, ptr noundef %cbopaque, ptr noundef %format, ptr noundef %ap) #0 {
entry:
  %write_cb.addr = alloca ptr, align 8
  %cbopaque.addr = alloca ptr, align 8
  %format.addr = alloca ptr, align 8
  %ap.addr = alloca ptr, align 8
  %buf = alloca [4096 x i8], align 16
  store ptr %write_cb, ptr %write_cb.addr, align 8
  store ptr %cbopaque, ptr %cbopaque.addr, align 8
  store ptr %format, ptr %format.addr, align 8
  store ptr %ap, ptr %ap.addr, align 8
  %0 = load ptr, ptr %write_cb.addr, align 8
  %cmp = icmp eq ptr %0, null
  br i1 %cmp, label %if.then, label %if.end

if.then:                                          ; preds = %entry
  %1 = load ptr, ptr @je_malloc_message, align 8
  %cmp1 = icmp ne ptr %1, null
  br i1 %cmp1, label %cond.true, label %cond.false

cond.true:                                        ; preds = %if.then
  %2 = load ptr, ptr @je_malloc_message, align 8
  br label %cond.end

cond.false:                                       ; preds = %if.then
  br label %cond.end

cond.end:                                         ; preds = %cond.false, %cond.true
  %cond = phi ptr [ %2, %cond.true ], [ @wrtmessage, %cond.false ]
  store ptr %cond, ptr %write_cb.addr, align 8
  br label %if.end

if.end:                                           ; preds = %cond.end, %entry
  %arraydecay = getelementptr inbounds [4096 x i8], ptr %buf, i64 0, i64 0
  %3 = load ptr, ptr %format.addr, align 8
  %4 = load ptr, ptr %ap.addr, align 8
  %call = call i64 @malloc_vsnprintf(ptr noundef %arraydecay, i64 noundef 4096, ptr noundef %3, ptr noundef %4) #10
  %5 = load ptr, ptr %write_cb.addr, align 8
  %6 = load ptr, ptr %cbopaque.addr, align 8
  %arraydecay2 = getelementptr inbounds [4096 x i8], ptr %buf, i64 0, i64 0
  call void %5(ptr noundef %6, ptr noundef %arraydecay2)
  ret void
}