; Function Attrs: nounwind uwtable
define hidden void @malloc_vcprintf(ptr noundef readonly %write_cb, ptr noundef %cbopaque, ptr noundef %format, ptr noundef %ap) local_unnamed_addr #0 {
entry:
  %buf = alloca [4096 x i8], align 16
  %cmp = icmp eq ptr %write_cb, null
  %0 = load ptr, ptr @je_malloc_message, align 8
  %cmp1.not = icmp eq ptr %0, null
  %cond = select i1 %cmp1.not, ptr @wrtmessage, ptr %0
  %write_cb.addr.0 = select i1 %cmp, ptr %cond, ptr %write_cb
  %call = call i64 @malloc_vsnprintf(ptr noundef nonnull %buf, i64 noundef 4096, ptr noundef %format, ptr noundef %ap) #15
  call void %write_cb.addr.0(ptr noundef %cbopaque, ptr noundef nonnull %buf) #13
  ret void
}